; Function Attrs: mustprogress uwtable
define internal noundef zeroext i1 @_ZN12_GLOBAL__N_138TestPresetExecutionNoTestsActionHelperERN19cmCMakePresetsGraph10TestPreset16ExecutionOptions17NoTestsActionEnumEPKN4Json5ValueEP11cmJSONState(ptr nocapture noundef nonnull writeonly align 4 dereferenceable(4) %0, ptr noundef %1, ptr noundef %2) #3 {
  %4 = alloca %"class.std::__cxx11::basic_string", align 8
  %5 = alloca %"class.std::__cxx11::basic_string", align 8
  %6 = alloca %"class.std::__cxx11::basic_string", align 8
  %.not = icmp eq ptr %1, null
  br i1 %.not, label %7, label %8

7:                                                ; preds = %3
  store i32 0, ptr %0, align 4
  br label %24

8:                                                ; preds = %3
  %9 = tail call noundef zeroext i1 @_ZNK4Json5Value8isStringEv(ptr noundef nonnull align 8 dereferenceable(40) %1)
  br i1 %9, label %11, label %10

10:                                               ; preds = %8
  tail call void @_ZN20cmCMakePresetsErrors14INVALID_PRESETEPKN4Json5ValueEP11cmJSONState(ptr noundef nonnull %1, ptr noundef %2)
  br label %24

11:                                               ; preds = %8
  call void @_ZNK4Json5Value8asStringB5cxx11Ev(ptr dead_on_unwind nonnull writable sret(%"class.std::__cxx11::basic_string") align 8 %4, ptr noundef nonnull align 8 dereferenceable(40) %1)
  %12 = call noundef i32 @_ZNKSt7__cxx1112basic_stringIcSt11char_traitsIcESaIcEE7compareEPKc(ptr noundef nonnull align 8 dereferenceable(32) %4, ptr noundef nonnull @.str.67) #17
  %13 = icmp eq i32 %12, 0
  call void @_ZNSt7__cxx1112basic_stringIcSt11char_traitsIcESaIcEED1Ev(ptr noundef nonnull align 8 dereferenceable(32) %4) #17
  br i1 %13, label %14, label %15

14:                                               ; preds = %11
  store i32 0, ptr %0, align 4
  br label %24

15:                                               ; preds = %11
  call void @_ZNK4Json5Value8asStringB5cxx11Ev(ptr dead_on_unwind nonnull writable sret(%"class.std::__cxx11::basic_string") align 8 %5, ptr noundef nonnull align 8 dereferenceable(40) %1)
  %16 = call noundef i32 @_ZNKSt7__cxx1112basic_stringIcSt11char_traitsIcESaIcEE7compareEPKc(ptr noundef nonnull align 8 dereferenceable(32) %5, ptr noundef nonnull @.str.78) #17
  %17 = icmp eq i32 %16, 0
  call void @_ZNSt7__cxx1112basic_stringIcSt11char_traitsIcESaIcEED1Ev(ptr noundef nonnull align 8 dereferenceable(32) %5) #17
  br i1 %17, label %18, label %19

18:                                               ; preds = %15
  store i32 1, ptr %0, align 4
  br label %24

19:                                               ; preds = %15
  call void @_ZNK4Json5Value8asStringB5cxx11Ev(ptr dead_on_unwind nonnull writable sret(%"class.std::__cxx11::basic_string") align 8 %6, ptr noundef nonnull align 8 dereferenceable(40) %1)
  %20 = call noundef i32 @_ZNKSt7__cxx1112basic_stringIcSt11char_traitsIcESaIcEE7compareEPKc(ptr noundef nonnull align 8 dereferenceable(32) %6, ptr noundef nonnull @.str.79) #17
  %21 = icmp eq i32 %20, 0
  call void @_ZNSt7__cxx1112basic_stringIcSt11char_traitsIcESaIcEED1Ev(ptr noundef nonnull align 8 dereferenceable(32) %6) #17
  br i1 %21, label %22, label %23

22:                                               ; preds = %19
  store i32 2, ptr %0, align 4
  br label %24

23:                                               ; preds = %19
  call void @_ZN20cmCMakePresetsErrors14INVALID_PRESETEPKN4Json5ValueEP11cmJSONState(ptr noundef nonnull %1, ptr noundef %2)
  br label %24

24:                                               ; preds = %23, %22, %18, %14, %10, %7
  %.0 = phi i1 [ true, %14 ], [ true, %18 ], [ true, %22 ], [ false, %23 ], [ false, %10 ], [ true, %7 ]
  ret i1 %.0
}